target datalayout = "e-m:e-p270:32:32-p271:32:32-p272:64:64-i64:64-i128:128-f80:128-n8:16:32:64-S128"
target triple = "x86_64-pc-linux-gnu"

%struct.ggml_tensor = type { i32, ptr, [4 x i64], [4 x i64], i32, [16 x i32], i32, [10 x ptr], ptr, i64, ptr, [64 x i8], ptr, [8 x i8] }

@.str.13 = private unnamed_addr constant [23 x i8] c"GGML_ASSERT(%s) failed\00", align 1
@.str.463 = private unnamed_addr constant [118 x i8] c"generated/home/dtcxzyw/WorkSpace/Projects/compilers/llvm-opt-benchmark/bench/llama.cpp/llama.cpp/ggml/src/ggml-impl.h\00", align 1
@.str.464 = private unnamed_addr constant [15 x i8] c"tensor != NULL\00", align 1

; Function Attrs: nounwind uwtable
define internal void @ggml_set_op_params(ptr noundef %0, ptr noundef %1, i64 noundef %2) #5 {
  %4 = alloca ptr, align 8
  %5 = alloca ptr, align 8
  %6 = alloca i64, align 8
  store ptr %0, ptr %4, align 8, !tbaa !54
  store ptr %1, ptr %5, align 8, !tbaa !18
  store i64 %2, ptr %6, align 8, !tbaa !19
  %7 = load ptr, ptr %4, align 8, !tbaa !54
  %8 = icmp ne ptr %7, null
  br i1 %8, label %10, label %9

9:                                                ; preds = %3
  call void (ptr, i32, ptr, ...) @ggml_abort(ptr noundef @.str.463, i32 noundef 112, ptr noundef @.str.13, ptr noundef @.str.464) #18
  unreachable

10:                                               ; preds = %3
  %11 = load ptr, ptr %4, align 8, !tbaa !54
  %12 = getelementptr inbounds nuw %struct.ggml_tensor, ptr %11, i32 0, i32 5
  %13 = getelementptr inbounds [16 x i32], ptr %12, i64 0, i64 0
  %14 = load ptr, ptr %5, align 8, !tbaa !18
  %15 = load i64, ptr %6, align 8, !tbaa !19
  call void @llvm.memcpy.p0.p0.i64(ptr align 4 %13, ptr align 1 %14, i64 %15, i1 false)
  ret void
}

; Function Attrs: nounwind uwtable
define ptr @ggml_new_tensor(ptr noundef %0, i32 noundef %1, i32 noundef %2, ptr noundef %3) #5 {
  %5 = alloca ptr, align 8
  %6 = alloca i32, align 4
  %7 = alloca i32, align 4
  %8 = alloca ptr, align 8
  store ptr %0, ptr %5, align 8, !tbaa !48
  store i32 %1, ptr %6, align 4, !tbaa !8
  store i32 %2, ptr %7, align 4, !tbaa !8
  store ptr %3, ptr %8, align 8, !tbaa !88
  %9 = load ptr, ptr %5, align 8, !tbaa !48
  %10 = load i32, ptr %6, align 4, !tbaa !8
  %11 = load i32, ptr %7, align 4, !tbaa !8
  %12 = load ptr, ptr %8, align 8, !tbaa !88
  %13 = call ptr @ggml_new_tensor_impl(ptr noundef %9, i32 noundef %10, i32 noundef %11, ptr noundef %12, ptr noundef null, i64 noundef 0)
  ret ptr %13
}

; Function Attrs: nounwind uwtable
define internal i64 @ggml_calc_pool_output_size(i64 noundef %0, i32 noundef %1, i32 noundef %2, float noundef %3) #5 {
  %5 = alloca i64, align 8
  %6 = alloca i32, align 4
  %7 = alloca i32, align 4
  %8 = alloca float, align 4
  store i64 %0, ptr %5, align 8, !tbaa !19
  store i32 %1, ptr %6, align 4, !tbaa !8
  store i32 %2, ptr %7, align 4, !tbaa !8
  store float %3, ptr %8, align 4, !tbaa !23
  %9 = load i64, ptr %5, align 8, !tbaa !19
  %10 = sitofp i64 %9 to float
  %11 = load float, ptr %8, align 4, !tbaa !23
  %12 = call float @llvm.fmuladd.f32(float 2.000000e+00, float %11, float %10)
  %13 = load i32, ptr %6, align 4, !tbaa !8
  %14 = sitofp i32 %13 to float
  %15 = fsub float %12, %14
  %16 = load i32, ptr %7, align 4, !tbaa !8
  %17 = sitofp i32 %16 to float
  %18 = fdiv float %15, %17
  %19 = fadd float %18, 1.000000e+00
  %20 = fptosi float %19 to i64
  ret i64 %20
}

; Function Attrs: nounwind uwtable
define ptr @ggml_pool_2d(ptr noundef %0, ptr noundef %1, i32 noundef %2, i32 noundef %3, i32 noundef %4, i32 noundef %5, i32 noundef %6, float noundef %7, float noundef %8) #5 {
  %10 = alloca ptr, align 8
  %11 = alloca ptr, align 8
  %12 = alloca i32, align 4
  %13 = alloca i32, align 4
  %14 = alloca i32, align 4
  %15 = alloca i32, align 4
  %16 = alloca i32, align 4
  %17 = alloca float, align 4
  %18 = alloca float, align 4
  %19 = alloca ptr, align 8
  %20 = alloca [4 x i64], align 16
  %21 = alloca [7 x i32], align 16
  store ptr %0, ptr %10, align 8, !tbaa !48
  store ptr %1, ptr %11, align 8, !tbaa !54
  store i32 %2, ptr %12, align 4, !tbaa !8
  store i32 %3, ptr %13, align 4, !tbaa !8
  store i32 %4, ptr %14, align 4, !tbaa !8
  store i32 %5, ptr %15, align 4, !tbaa !8
  store i32 %6, ptr %16, align 4, !tbaa !8
  store float %7, ptr %17, align 4, !tbaa !23
  store float %8, ptr %18, align 4, !tbaa !23
  call void @llvm.lifetime.start.p0(i64 8, ptr %19) #14
  call void @llvm.lifetime.start.p0(i64 32, ptr %20) #14
  %22 = load ptr, ptr %11, align 8, !tbaa !54
  %23 = getelementptr inbounds nuw %struct.ggml_tensor, ptr %22, i32 0, i32 2
  %24 = getelementptr inbounds [4 x i64], ptr %23, i64 0, i64 0
  %25 = load i64, ptr %24, align 8, !tbaa !19
  %26 = load i32, ptr %13, align 4, !tbaa !8
  %27 = load i32, ptr %15, align 4, !tbaa !8
  %28 = load float, ptr %17, align 4, !tbaa !23
  %29 = call i64 @ggml_calc_pool_output_size(i64 noundef %25, i32 noundef %26, i32 noundef %27, float noundef %28)
  store i64 %29, ptr %20, align 8, !tbaa !19
  %30 = getelementptr inbounds i64, ptr %20, i64 1
  %31 = load ptr, ptr %11, align 8, !tbaa !54
  %32 = getelementptr inbounds nuw %struct.ggml_tensor, ptr %31, i32 0, i32 2
  %33 = getelementptr inbounds [4 x i64], ptr %32, i64 0, i64 1
  %34 = load i64, ptr %33, align 8, !tbaa !19
  %35 = load i32, ptr %14, align 4, !tbaa !8
  %36 = load i32, ptr %16, align 4, !tbaa !8
  %37 = load float, ptr %18, align 4, !tbaa !23
  %38 = call i64 @ggml_calc_pool_output_size(i64 noundef %34, i32 noundef %35, i32 noundef %36, float noundef %37)
  store i64 %38, ptr %30, align 8, !tbaa !19
  %39 = getelementptr inbounds i64, ptr %20, i64 2
  %40 = load ptr, ptr %11, align 8, !tbaa !54
  %41 = getelementptr inbounds nuw %struct.ggml_tensor, ptr %40, i32 0, i32 2
  %42 = getelementptr inbounds [4 x i64], ptr %41, i64 0, i64 2
  %43 = load i64, ptr %42, align 8, !tbaa !19
  store i64 %43, ptr %39, align 8, !tbaa !19
  %44 = getelementptr inbounds i64, ptr %20, i64 3
  %45 = load ptr, ptr %11, align 8, !tbaa !54
  %46 = getelementptr inbounds nuw %struct.ggml_tensor, ptr %45, i32 0, i32 2
  %47 = getelementptr inbounds [4 x i64], ptr %46, i64 0, i64 3
  %48 = load i64, ptr %47, align 8, !tbaa !19
  store i64 %48, ptr %44, align 8, !tbaa !19
  %49 = load ptr, ptr %10, align 8, !tbaa !48
  %50 = getelementptr inbounds [4 x i64], ptr %20, i64 0, i64 0
  %51 = call ptr @ggml_new_tensor(ptr noundef %49, i32 noundef 0, i32 noundef 4, ptr noundef %50)
  store ptr %51, ptr %19, align 8, !tbaa !54
  call void @llvm.lifetime.start.p0(i64 28, ptr %21) #14
  %52 = load i32, ptr %12, align 4, !tbaa !8
  store i32 %52, ptr %21, align 4, !tbaa !8
  %53 = getelementptr inbounds i32, ptr %21, i64 1
  %54 = load i32, ptr %13, align 4, !tbaa !8
  store i32 %54, ptr %53, align 4, !tbaa !8
  %55 = getelementptr inbounds i32, ptr %21, i64 2
  %56 = load i32, ptr %14, align 4, !tbaa !8
  store i32 %56, ptr %55, align 4, !tbaa !8
  %57 = getelementptr inbounds i32, ptr %21, i64 3
  %58 = load i32, ptr %15, align 4, !tbaa !8
  store i32 %58, ptr %57, align 4, !tbaa !8
  %59 = getelementptr inbounds i32, ptr %21, i64 4
  %60 = load i32, ptr %16, align 4, !tbaa !8
  store i32 %60, ptr %59, align 4, !tbaa !8
  %61 = getelementptr inbounds i32, ptr %21, i64 5
  %62 = load float, ptr %17, align 4, !tbaa !23
  %63 = fptosi float %62 to i32
  store i32 %63, ptr %61, align 4, !tbaa !8
  %64 = getelementptr inbounds i32, ptr %21, i64 6
  %65 = load float, ptr %18, align 4, !tbaa !23
  %66 = fptosi float %65 to i32
  store i32 %66, ptr %64, align 4, !tbaa !8
  %67 = load ptr, ptr %19, align 8, !tbaa !54
  %68 = getelementptr inbounds [7 x i32], ptr %21, i64 0, i64 0
  call void @ggml_set_op_params(ptr noundef %67, ptr noundef %68, i64 noundef 28)
  %69 = load ptr, ptr %19, align 8, !tbaa !54
  %70 = getelementptr inbounds nuw %struct.ggml_tensor, ptr %69, i32 0, i32 4
  store i32 52, ptr %70, align 8, !tbaa !68
  %71 = load ptr, ptr %11, align 8, !tbaa !54
  %72 = load ptr, ptr %19, align 8, !tbaa !54
  %73 = getelementptr inbounds nuw %struct.ggml_tensor, ptr %72, i32 0, i32 7
  %74 = getelementptr inbounds [10 x ptr], ptr %73, i64 0, i64 0
  store ptr %71, ptr %74, align 8, !tbaa !54
  %75 = load ptr, ptr %19, align 8, !tbaa !54
  call void @llvm.lifetime.end.p0(i64 28, ptr %21) #14
  call void @llvm.lifetime.end.p0(i64 32, ptr %20) #14
  call void @llvm.lifetime.end.p0(i64 8, ptr %19) #14
  ret ptr %75
}