; Function Attrs: nounwind uwtable
define noundef ptr @ggml_pool_2d(ptr noundef captures(none) %0, ptr noundef %1, i32 noundef %2, i32 noundef %3, i32 noundef %4, i32 noundef %5, i32 noundef %6, float noundef %7, float noundef %8) local_unnamed_addr #4 {
  %10 = alloca [4 x i64], align 16
  call void @llvm.lifetime.start.p0(i64 32, ptr nonnull %10) #42
  %11 = getelementptr inbounds nuw i8, ptr %1, i64 16
  %12 = load i64, ptr %11, align 8, !tbaa !39
  %13 = sitofp i64 %12 to float
  %14 = tail call float @llvm.fmuladd.f32(float %7, float 2.000000e+00, float %13)
  %15 = sitofp i32 %3 to float
  %16 = fsub float %14, %15
  %17 = sitofp i32 %5 to float
  %18 = fdiv float %16, %17
  %19 = fadd float %18, 1.000000e+00
  %20 = fptosi float %19 to i64
  store i64 %20, ptr %10, align 16, !tbaa !39
  %21 = getelementptr inbounds nuw i8, ptr %10, i64 8
  %22 = getelementptr inbounds nuw i8, ptr %1, i64 24
  %23 = load i64, ptr %22, align 8, !tbaa !39
  %24 = sitofp i64 %23 to float
  %25 = tail call float @llvm.fmuladd.f32(float %8, float 2.000000e+00, float %24)
  %26 = sitofp i32 %4 to float
  %27 = fsub float %25, %26
  %28 = sitofp i32 %6 to float
  %29 = fdiv float %27, %28
  %30 = fadd float %29, 1.000000e+00
  %31 = fptosi float %30 to i64
  store i64 %31, ptr %21, align 8, !tbaa !39
  %32 = getelementptr inbounds nuw i8, ptr %10, i64 16
  %33 = getelementptr inbounds nuw i8, ptr %1, i64 32
  %34 = load i64, ptr %33, align 8, !tbaa !39
  store i64 %34, ptr %32, align 16, !tbaa !39
  %35 = getelementptr inbounds nuw i8, ptr %10, i64 24
  %36 = getelementptr inbounds nuw i8, ptr %1, i64 40
  %37 = load i64, ptr %36, align 8, !tbaa !39
  store i64 %37, ptr %35, align 8, !tbaa !39
  %38 = call fastcc noundef ptr @ggml_new_tensor_impl(ptr noundef %0, i32 noundef 0, i32 noundef 4, ptr noundef nonnull readonly %10, ptr noundef null, i64 noundef 0)
  %.not.i = icmp eq ptr %38, null
  br i1 %.not.i, label %39, label %ggml_set_op_params.exit

39:                                               ; preds = %9
  tail call void (ptr, i32, ptr, ...) @ggml_abort(ptr noundef nonnull @.str.463, i32 noundef 112, ptr noundef nonnull @.str.13, ptr noundef nonnull @.str.464) #47
  unreachable

ggml_set_op_params.exit:                          ; preds = %9
  %40 = fptosi float %8 to i32
  %41 = fptosi float %7 to i32
  %42 = getelementptr inbounds nuw i8, ptr %38, i64 84
  store i32 %2, ptr %42, align 4
  %.sroa.4.0..sroa_idx = getelementptr inbounds nuw i8, ptr %38, i64 88
  store i32 %3, ptr %.sroa.4.0..sroa_idx, align 4
  %.sroa.5.0..sroa_idx = getelementptr inbounds nuw i8, ptr %38, i64 92
  store i32 %4, ptr %.sroa.5.0..sroa_idx, align 4
  %.sroa.6.0..sroa_idx = getelementptr inbounds nuw i8, ptr %38, i64 96
  store i32 %5, ptr %.sroa.6.0..sroa_idx, align 4
  %.sroa.7.0..sroa_idx = getelementptr inbounds nuw i8, ptr %38, i64 100
  store i32 %6, ptr %.sroa.7.0..sroa_idx, align 4
  %.sroa.8.0..sroa_idx = getelementptr inbounds nuw i8, ptr %38, i64 104
  store i32 %41, ptr %.sroa.8.0..sroa_idx, align 4
  %.sroa.9.0..sroa_idx = getelementptr inbounds nuw i8, ptr %38, i64 108
  store i32 %40, ptr %.sroa.9.0..sroa_idx, align 4
  %43 = getelementptr inbounds nuw i8, ptr %38, i64 80
  store i32 52, ptr %43, align 8, !tbaa !55
  %44 = getelementptr inbounds nuw i8, ptr %38, i64 152
  store ptr %1, ptr %44, align 8, !tbaa !81
  call void @llvm.lifetime.end.p0(i64 32, ptr nonnull %10) #42
  ret ptr %38
}